; Function Attrs: mustprogress nofree norecurse nosync nounwind willreturn memory(read, argmem: readwrite, inaccessiblemem: none) uwtable
define hidden noundef ptr @_ZN13bool_rewriter8simp_argEP4exprR13ast_fast_markILj1EERS2_ILj2EERb(ptr nocapture noundef nonnull readonly align 8 dereferenceable(72) %this, ptr noundef readonly %arg, ptr nocapture noundef nonnull readnone align 8 dereferenceable(144) %neg_lits, ptr nocapture noundef nonnull readnone align 8 dereferenceable(144) %pos_lits, ptr nocapture noundef nonnull writeonly align 1 dereferenceable(1) %modified) local_unnamed_addr #6 align 2 {
entry:
  %m_kind.i.i.i = getelementptr inbounds i8, ptr %arg, i64 4
  %bf.load.i.i.i = load i32, ptr %m_kind.i.i.i, align 4
  %bf.clear.i.i.i = and i32 %bf.load.i.i.i, 65535
  %cmp.i.i = icmp eq i32 %bf.clear.i.i.i, 0
  br i1 %cmp.i.i, label %land.rhs.i.i, label %if.else

land.rhs.i.i:                                     ; preds = %entry
  %m_decl.i.i.i = getelementptr inbounds i8, ptr %arg, i64 16
  %0 = load ptr, ptr %m_decl.i.i.i, align 8
  %m_info.i.i.i.i = getelementptr inbounds i8, ptr %0, i64 24
  %1 = load ptr, ptr %m_info.i.i.i.i, align 8
  %tobool.not.i.i.i.i = icmp eq ptr %1, null
  br i1 %tobool.not.i.i.i.i, label %if.else, label %_ZNK11ast_manager6is_notEPK4expr.exit

_ZNK11ast_manager6is_notEPK4expr.exit:            ; preds = %land.rhs.i.i
  %2 = load i32, ptr %1, align 8
  %cmp.i.i.i.i.i = icmp eq i32 %2, 0
  %m_kind.i.i.i.i.i = getelementptr inbounds i8, ptr %1, i64 4
  %3 = load i32, ptr %m_kind.i.i.i.i.i, align 4
  %cmp2.i.i.i.i.i = icmp eq i32 %3, 8
  %4 = select i1 %cmp.i.i.i.i.i, i1 %cmp2.i.i.i.i.i, i1 false
  br i1 %4, label %if.then, label %if.else

if.then:                                          ; preds = %_ZNK11ast_manager6is_notEPK4expr.exit
  %m_args.i = getelementptr inbounds i8, ptr %arg, i64 32
  %5 = load ptr, ptr %m_args.i, align 8
  %m_mark1.i.i = getelementptr inbounds i8, ptr %5, i64 4
  %bf.load.i.i = load i32, ptr %m_mark1.i.i, align 4
  %6 = and i32 %bf.load.i.i, 65536
  %tobool.i.i.not = icmp eq i32 %6, 0
  br i1 %tobool.i.i.not, label %if.end, label %return.sink.split

if.end:                                           ; preds = %if.then
  %7 = and i32 %bf.load.i.i, 131072
  %tobool.i.i13.not = icmp eq i32 %7, 0
  br i1 %tobool.i.i13.not, label %return, label %return.sink.split

if.else:                                          ; preds = %land.rhs.i.i, %entry, %_ZNK11ast_manager6is_notEPK4expr.exit
  %8 = and i32 %bf.load.i.i.i, 65536
  %tobool.i.i16.not = icmp eq i32 %8, 0
  br i1 %tobool.i.i16.not, label %if.end18, label %return.sink.split

if.end18:                                         ; preds = %if.else
  %9 = and i32 %bf.load.i.i.i, 131072
  %tobool.i.i20.not = icmp eq i32 %9, 0
  br i1 %tobool.i.i20.not, label %return, label %return.sink.split

return.sink.split:                                ; preds = %if.end18, %if.else, %if.end, %if.then
  %.sink22 = phi i64 [ 864, %if.then ], [ 856, %if.end ], [ 856, %if.else ], [ 864, %if.end18 ]
  store i8 1, ptr %modified, align 1
  %10 = load ptr, ptr %this, align 8
  %m_false.i21 = getelementptr inbounds i8, ptr %10, i64 %.sink22
  %11 = load ptr, ptr %m_false.i21, align 8
  br label %return

return:                                           ; preds = %return.sink.split, %if.end18, %if.end
  %retval.0 = phi ptr [ %arg, %if.end ], [ %arg, %if.end18 ], [ %11, %return.sink.split ]
  ret ptr %retval.0
}